target datalayout = "e-m:e-p270:32:32-p271:32:32-p272:64:64-i64:64-i128:128-f80:128-n8:16:32:64-S128"
target triple = "x86_64-pc-linux-gnu"

%struct.pmix_tma = type { ptr, ptr, ptr, ptr, ptr, ptr, ptr, ptr }

@.str.1 = private unnamed_addr constant [1 x i8] zeroinitializer, align 1

; Function Attrs: inlinehint nounwind uwtable
define internal ptr @pmix_tma_malloc(ptr noundef %0, i64 noundef %1) #1 {
  %3 = alloca ptr, align 8
  %4 = alloca ptr, align 8
  %5 = alloca i64, align 8
  store ptr %0, ptr %4, align 8, !tbaa !8
  store i64 %1, ptr %5, align 8, !tbaa !30
  %6 = load ptr, ptr %4, align 8, !tbaa !8
  %7 = icmp ne ptr null, %6
  br i1 %7, label %8, label %15

8:                                                ; preds = %2
  %9 = load ptr, ptr %4, align 8, !tbaa !8
  %10 = getelementptr inbounds nuw %struct.pmix_tma, ptr %9, i32 0, i32 0
  %11 = load ptr, ptr %10, align 8, !tbaa !226
  %12 = load ptr, ptr %4, align 8, !tbaa !8
  %13 = load i64, ptr %5, align 8, !tbaa !30
  %14 = call ptr %11(ptr noundef %12, i64 noundef %13)
  store ptr %14, ptr %3, align 8
  br label %18

15:                                               ; preds = %2
  %16 = load i64, ptr %5, align 8, !tbaa !30
  %17 = call noalias ptr @malloc(i64 noundef %16) #17
  store ptr %17, ptr %3, align 8
  br label %18

18:                                               ; preds = %15, %8
  %19 = load ptr, ptr %3, align 8
  ret ptr %19
}

; Function Attrs: inlinehint nounwind uwtable
define internal ptr @pmix_tma_strdup(ptr noundef %0, ptr noundef %1) #1 {
  %3 = alloca ptr, align 8
  %4 = alloca ptr, align 8
  %5 = alloca ptr, align 8
  store ptr %0, ptr %4, align 8, !tbaa !8
  store ptr %1, ptr %5, align 8, !tbaa !3
  %6 = load ptr, ptr %4, align 8, !tbaa !8
  %7 = icmp ne ptr null, %6
  br i1 %7, label %8, label %15

8:                                                ; preds = %2
  %9 = load ptr, ptr %4, align 8, !tbaa !8
  %10 = getelementptr inbounds nuw %struct.pmix_tma, ptr %9, i32 0, i32 3
  %11 = load ptr, ptr %10, align 8, !tbaa !228
  %12 = load ptr, ptr %4, align 8, !tbaa !8
  %13 = load ptr, ptr %5, align 8, !tbaa !3
  %14 = call ptr %11(ptr noundef %12, ptr noundef %13)
  store ptr %14, ptr %3, align 8
  br label %18

15:                                               ; preds = %2
  %16 = load ptr, ptr %5, align 8, !tbaa !3
  %17 = call noalias ptr @strdup(ptr noundef %16) #15
  store ptr %17, ptr %3, align 8
  br label %18

18:                                               ; preds = %15, %8
  %19 = load ptr, ptr %3, align 8
  ret ptr %19
}

; Function Attrs: inlinehint nounwind uwtable
define internal ptr @pmix_bfrops_base_tma_argv_join(ptr noundef %0, i32 noundef %1, ptr noundef %2) #1 {
  %4 = alloca ptr, align 8
  %5 = alloca ptr, align 8
  %6 = alloca i32, align 4
  %7 = alloca ptr, align 8
  %8 = alloca ptr, align 8
  %9 = alloca ptr, align 8
  %10 = alloca ptr, align 8
  %11 = alloca i64, align 8
  %12 = alloca i64, align 8
  %13 = alloca i32, align 4
  store ptr %0, ptr %5, align 8, !tbaa !16
  store i32 %1, ptr %6, align 4, !tbaa !12
  store ptr %2, ptr %7, align 8, !tbaa !8
  call void @llvm.lifetime.start.p0(i64 8, ptr %8) #15
  call void @llvm.lifetime.start.p0(i64 8, ptr %9) #15
  call void @llvm.lifetime.start.p0(i64 8, ptr %10) #15
  call void @llvm.lifetime.start.p0(i64 8, ptr %11) #15
  store i64 0, ptr %11, align 8, !tbaa !30
  call void @llvm.lifetime.start.p0(i64 8, ptr %12) #15
  %14 = load ptr, ptr %5, align 8, !tbaa !16
  %15 = icmp eq ptr null, %14
  br i1 %15, label %21, label %16

16:                                               ; preds = %3
  %17 = load ptr, ptr %5, align 8, !tbaa !16
  %18 = getelementptr inbounds ptr, ptr %17, i64 0
  %19 = load ptr, ptr %18, align 8, !tbaa !3
  %20 = icmp eq ptr null, %19
  br i1 %20, label %21, label %24

21:                                               ; preds = %16, %3
  %22 = load ptr, ptr %7, align 8, !tbaa !8
  %23 = call ptr @pmix_tma_strdup(ptr noundef %22, ptr noundef @.str.1)
  store ptr %23, ptr %4, align 8
  store i32 1, ptr %13, align 4
  br label %86

24:                                               ; preds = %16
  %25 = load ptr, ptr %5, align 8, !tbaa !16
  store ptr %25, ptr %8, align 8, !tbaa !16
  br label %26

26:                                               ; preds = %37, %24
  %27 = load ptr, ptr %8, align 8, !tbaa !16
  %28 = load ptr, ptr %27, align 8, !tbaa !3
  %29 = icmp ne ptr %28, null
  br i1 %29, label %30, label %40

30:                                               ; preds = %26
  %31 = load ptr, ptr %8, align 8, !tbaa !16
  %32 = load ptr, ptr %31, align 8, !tbaa !3
  %33 = call i64 @strlen(ptr noundef %32) #14
  %34 = add i64 %33, 1
  %35 = load i64, ptr %11, align 8, !tbaa !30
  %36 = add i64 %35, %34
  store i64 %36, ptr %11, align 8, !tbaa !30
  br label %37

37:                                               ; preds = %30
  %38 = load ptr, ptr %8, align 8, !tbaa !16
  %39 = getelementptr inbounds nuw ptr, ptr %38, i32 1
  store ptr %39, ptr %8, align 8, !tbaa !16
  br label %26, !llvm.loop !34

40:                                               ; preds = %26
  %41 = load ptr, ptr %7, align 8, !tbaa !8
  %42 = load i64, ptr %11, align 8, !tbaa !30
  %43 = call ptr @pmix_tma_malloc(ptr noundef %41, i64 noundef %42)
  store ptr %43, ptr %10, align 8, !tbaa !3
  %44 = icmp eq ptr null, %43
  br i1 %44, label %45, label %46

45:                                               ; preds = %40
  store ptr null, ptr %4, align 8
  store i32 1, ptr %13, align 4
  br label %86

46:                                               ; preds = %40
  %47 = load ptr, ptr %10, align 8, !tbaa !3
  %48 = load i64, ptr %11, align 8, !tbaa !30
  %49 = add i64 %48, -1
  store i64 %49, ptr %11, align 8, !tbaa !30
  %50 = getelementptr inbounds nuw i8, ptr %47, i64 %49
  store i8 0, ptr %50, align 1, !tbaa !29
  %51 = load ptr, ptr %5, align 8, !tbaa !16
  store ptr %51, ptr %8, align 8, !tbaa !16
  %52 = load ptr, ptr %8, align 8, !tbaa !16
  %53 = load ptr, ptr %52, align 8, !tbaa !3
  store ptr %53, ptr %9, align 8, !tbaa !3
  store i64 0, ptr %12, align 8, !tbaa !30
  br label %54

54:                                               ; preds = %81, %46
  %55 = load i64, ptr %12, align 8, !tbaa !30
  %56 = load i64, ptr %11, align 8, !tbaa !30
  %57 = icmp ult i64 %55, %56
  br i1 %57, label %58, label %84

58:                                               ; preds = %54
  %59 = load ptr, ptr %9, align 8, !tbaa !3
  %60 = load i8, ptr %59, align 1, !tbaa !29
  %61 = sext i8 %60 to i32
  %62 = icmp eq i32 0, %61
  br i1 %62, label %63, label %73

63:                                               ; preds = %58
  %64 = load i32, ptr %6, align 4, !tbaa !12
  %65 = trunc i32 %64 to i8
  %66 = load ptr, ptr %10, align 8, !tbaa !3
  %67 = load i64, ptr %12, align 8, !tbaa !30
  %68 = getelementptr inbounds nuw i8, ptr %66, i64 %67
  store i8 %65, ptr %68, align 1, !tbaa !29
  %69 = load ptr, ptr %8, align 8, !tbaa !16
  %70 = getelementptr inbounds nuw ptr, ptr %69, i32 1
  store ptr %70, ptr %8, align 8, !tbaa !16
  %71 = load ptr, ptr %8, align 8, !tbaa !16
  %72 = load ptr, ptr %71, align 8, !tbaa !3
  store ptr %72, ptr %9, align 8, !tbaa !3
  br label %80

73:                                               ; preds = %58
  %74 = load ptr, ptr %9, align 8, !tbaa !3
  %75 = getelementptr inbounds nuw i8, ptr %74, i32 1
  store ptr %75, ptr %9, align 8, !tbaa !3
  %76 = load i8, ptr %74, align 1, !tbaa !29
  %77 = load ptr, ptr %10, align 8, !tbaa !3
  %78 = load i64, ptr %12, align 8, !tbaa !30
  %79 = getelementptr inbounds nuw i8, ptr %77, i64 %78
  store i8 %76, ptr %79, align 1, !tbaa !29
  br label %80

80:                                               ; preds = %73, %63
  br label %81

81:                                               ; preds = %80
  %82 = load i64, ptr %12, align 8, !tbaa !30
  %83 = add i64 %82, 1
  store i64 %83, ptr %12, align 8, !tbaa !30
  br label %54, !llvm.loop !35

84:                                               ; preds = %54
  %85 = load ptr, ptr %10, align 8, !tbaa !3
  store ptr %85, ptr %4, align 8
  store i32 1, ptr %13, align 4
  br label %86

86:                                               ; preds = %84, %45, %21
  call void @llvm.lifetime.end.p0(i64 8, ptr %12) #15
  call void @llvm.lifetime.end.p0(i64 8, ptr %11) #15
  call void @llvm.lifetime.end.p0(i64 8, ptr %10) #15
  call void @llvm.lifetime.end.p0(i64 8, ptr %9) #15
  call void @llvm.lifetime.end.p0(i64 8, ptr %8) #15
  %87 = load ptr, ptr %4, align 8
  ret ptr %87
}

; Function Attrs: nounwind uwtable
define ptr @PMIx_Argv_join(ptr noundef %0, i32 noundef %1) #0 {
  %3 = alloca ptr, align 8
  %4 = alloca i32, align 4
  store ptr %0, ptr %3, align 8, !tbaa !16
  store i32 %1, ptr %4, align 4, !tbaa !12
  %5 = load ptr, ptr %3, align 8, !tbaa !16
  %6 = load i32, ptr %4, align 4, !tbaa !12
  %7 = call ptr @pmix_bfrops_base_tma_argv_join(ptr noundef %5, i32 noundef %6, ptr noundef null)
  ret ptr %7
}