; Function Attrs: nofree nounwind memory(readwrite, argmem: read) uwtable
define noalias noundef ptr @PMIx_Argv_join(ptr noundef readonly captures(address_is_null) %0, i32 noundef %1) local_unnamed_addr #8 {
  %3 = icmp eq ptr %0, null
  br i1 %3, label %7, label %4

4:                                                ; preds = %2
  %5 = load ptr, ptr %0, align 8, !tbaa !12
  %6 = icmp eq ptr %5, null
  br i1 %6, label %7, label %.preheader.i

7:                                                ; preds = %4, %2
  %8 = tail call noalias dereferenceable_or_null(1) ptr @strdup(ptr noundef nonnull @.str.1) #44
  br label %pmix_bfrops_base_tma_argv_join.exit

.preheader.i:                                     ; preds = %4, %.preheader.i
  %.0272.i = phi i64 [ %12, %.preheader.i ], [ 0, %4 ]
  %.0301.i = phi ptr [ %13, %.preheader.i ], [ %0, %4 ]
  %9 = phi ptr [ %.pr.i, %.preheader.i ], [ %5, %4 ]
  %10 = tail call i64 @strlen(ptr noundef nonnull dereferenceable(1) %9) #42
  %11 = add i64 %10, %.0272.i
  %12 = add i64 %11, 1
  %13 = getelementptr inbounds nuw i8, ptr %.0301.i, i64 8
  %.pr.i = load ptr, ptr %13, align 8, !tbaa !12
  %.not.i = icmp eq ptr %.pr.i, null
  br i1 %.not.i, label %14, label %.preheader.i, !llvm.loop !21

14:                                               ; preds = %.preheader.i
  %15 = tail call noalias noundef ptr @malloc(i64 noundef %12) #45
  %16 = icmp eq ptr %15, null
  br i1 %16, label %pmix_bfrops_base_tma_argv_join.exit, label %17

17:                                               ; preds = %14
  %18 = getelementptr inbounds nuw i8, ptr %15, i64 %11
  store i8 0, ptr %18, align 1, !tbaa !3
  %.not6.i = icmp eq i64 %11, 0
  br i1 %.not6.i, label %pmix_bfrops_base_tma_argv_join.exit, label %.lr.ph.i

.lr.ph.i:                                         ; preds = %17
  %19 = trunc i32 %1 to i8
  br label %20

20:                                               ; preds = %30, %.lr.ph.i
  %.05.i = phi i64 [ 0, %.lr.ph.i ], [ %31, %30 ]
  %.0294.i = phi ptr [ %5, %.lr.ph.i ], [ %.1.i, %30 ]
  %.1313.i = phi ptr [ %0, %.lr.ph.i ], [ %.2.i, %30 ]
  %21 = load i8, ptr %.0294.i, align 1, !tbaa !3
  %22 = icmp eq i8 %21, 0
  br i1 %22, label %23, label %27

23:                                               ; preds = %20
  %24 = getelementptr inbounds nuw i8, ptr %15, i64 %.05.i
  store i8 %19, ptr %24, align 1, !tbaa !3
  %25 = getelementptr inbounds nuw i8, ptr %.1313.i, i64 8
  %26 = load ptr, ptr %25, align 8, !tbaa !12
  br label %30

27:                                               ; preds = %20
  %28 = getelementptr inbounds nuw i8, ptr %.0294.i, i64 1
  %29 = getelementptr inbounds nuw i8, ptr %15, i64 %.05.i
  store i8 %21, ptr %29, align 1, !tbaa !3
  br label %30

30:                                               ; preds = %27, %23
  %.2.i = phi ptr [ %25, %23 ], [ %.1313.i, %27 ]
  %.1.i = phi ptr [ %26, %23 ], [ %28, %27 ]
  %31 = add nuw i64 %.05.i, 1
  %exitcond.not.i = icmp eq i64 %31, %11
  br i1 %exitcond.not.i, label %pmix_bfrops_base_tma_argv_join.exit, label %20, !llvm.loop !22

pmix_bfrops_base_tma_argv_join.exit:              ; preds = %30, %7, %14, %17
  %.028.i = phi ptr [ %8, %7 ], [ null, %14 ], [ %15, %17 ], [ %15, %30 ]
  ret ptr %.028.i
}